target datalayout = "e-m:e-p270:32:32-p271:32:32-p272:64:64-i64:64-i128:128-f80:128-n8:16:32:64-S128"
target triple = "x86_64-pc-linux-gnu"

%struct.UConverter = type { ptr, ptr, ptr, ptr, ptr, ptr, ptr, i32, i8, i8, i8, i8, i8, [7 x i8], i32, i32, i32, i32, i8, i8, i8, i8, i8, i8, i8, i8, [8 x i8], [32 x i8], [2 x i16], [2 x i16], [32 x i16], i32, [19 x i16], [31 x i8], i8, i8, i8, i32 }
%struct.UConverterDataCompoundText = type { [20 x ptr], i32 }

; Function Attrs: mustprogress uwtable
define internal void @_ZL18_CompoundTextCloseP10UConverter(ptr noundef %0) #0 {
  %2 = alloca ptr, align 8
  %3 = alloca ptr, align 8
  %4 = alloca i32, align 4
  store ptr %0, ptr %2, align 8, !tbaa !3
  call void @llvm.lifetime.start.p0(i64 8, ptr %3) #10
  %5 = load ptr, ptr %2, align 8, !tbaa !3
  %6 = getelementptr inbounds nuw %struct.UConverter, ptr %5, i32 0, i32 2
  %7 = load ptr, ptr %6, align 8, !tbaa !9
  store ptr %7, ptr %3, align 8, !tbaa !8
  call void @llvm.lifetime.start.p0(i64 4, ptr %4) #10
  %8 = load ptr, ptr %2, align 8, !tbaa !3
  %9 = getelementptr inbounds nuw %struct.UConverter, ptr %8, i32 0, i32 2
  %10 = load ptr, ptr %9, align 8, !tbaa !9
  %11 = icmp ne ptr %10, null
  br i1 %11, label %12, label %41

12:                                               ; preds = %1
  store i32 0, ptr %4, align 4, !tbaa !24
  br label %13

13:                                               ; preds = %32, %12
  %14 = load i32, ptr %4, align 4, !tbaa !24
  %15 = icmp slt i32 %14, 20
  br i1 %15, label %16, label %35

16:                                               ; preds = %13
  %17 = load ptr, ptr %3, align 8, !tbaa !8
  %18 = getelementptr inbounds nuw %struct.UConverterDataCompoundText, ptr %17, i32 0, i32 0
  %19 = load i32, ptr %4, align 4, !tbaa !24
  %20 = sext i32 %19 to i64
  %21 = getelementptr inbounds [20 x ptr], ptr %18, i64 0, i64 %20
  %22 = load ptr, ptr %21, align 8, !tbaa !15
  %23 = icmp ne ptr %22, null
  br i1 %23, label %24, label %31

24:                                               ; preds = %16
  %25 = load ptr, ptr %3, align 8, !tbaa !8
  %26 = getelementptr inbounds nuw %struct.UConverterDataCompoundText, ptr %25, i32 0, i32 0
  %27 = load i32, ptr %4, align 4, !tbaa !24
  %28 = sext i32 %27 to i64
  %29 = getelementptr inbounds [20 x ptr], ptr %26, i64 0, i64 %28
  %30 = load ptr, ptr %29, align 8, !tbaa !15
  call void @ucnv_unloadSharedDataIfReady_77(ptr noundef %30)
  br label %31

31:                                               ; preds = %24, %16
  br label %32

32:                                               ; preds = %31
  %33 = load i32, ptr %4, align 4, !tbaa !24
  %34 = add nsw i32 %33, 1
  store i32 %34, ptr %4, align 4, !tbaa !24
  br label %13, !llvm.loop !25

35:                                               ; preds = %13
  %36 = load ptr, ptr %2, align 8, !tbaa !3
  %37 = getelementptr inbounds nuw %struct.UConverter, ptr %36, i32 0, i32 2
  %38 = load ptr, ptr %37, align 8, !tbaa !9
  call void @uprv_free_77(ptr noundef %38)
  %39 = load ptr, ptr %2, align 8, !tbaa !3
  %40 = getelementptr inbounds nuw %struct.UConverter, ptr %39, i32 0, i32 2
  store ptr null, ptr %40, align 8, !tbaa !9
  br label %41

41:                                               ; preds = %35, %1
  call void @llvm.lifetime.end.p0(i64 4, ptr %4) #10
  call void @llvm.lifetime.end.p0(i64 8, ptr %3) #10
  ret void
}